target datalayout = "e-m:e-p270:32:32-p271:32:32-p272:64:64-i64:64-i128:128-f80:128-n8:16:32:64-S128"
target triple = "x86_64-pc-linux-gnu"

%"class.std::vector.11" = type { %"struct.std::_Vector_base.12" }
%"struct.std::_Vector_base.12" = type { %"struct.std::_Vector_base<double, std::allocator<double>>::_Vector_impl" }
%"struct.std::_Vector_base<double, std::allocator<double>>::_Vector_impl" = type { %"struct.std::_Vector_base<double, std::allocator<double>>::_Vector_impl_data" }
%"struct.std::_Vector_base<double, std::allocator<double>>::_Vector_impl_data" = type { ptr, ptr, ptr }
%"class.OpenColorIO_v2_5dev::L2LBaseRenderer" = type { %"class.OpenColorIO_v2_5dev::LogOpCPU", float, %"class.std::vector.11", %"class.std::vector.11", %"class.std::vector.11" }
%"class.OpenColorIO_v2_5dev::LogOpCPU" = type { %"class.OpenColorIO_v2_5dev::OpCPU" }
%"class.OpenColorIO_v2_5dev::OpCPU" = type { ptr }
%"class.OpenColorIO_v2_5dev::CameraL2LBaseRenderer" = type { %"class.OpenColorIO_v2_5dev::L2LBaseRenderer", [3 x float], [3 x float], [3 x float], float }
%"class.OpenColorIO_v2_5dev::CameraLog2LinRenderer" = type { %"class.OpenColorIO_v2_5dev::CameraL2LBaseRenderer", [3 x float], [3 x float], [3 x float], [3 x float], [3 x float], [3 x float] }

; Function Attrs: mustprogress nounwind uwtable
define linkonce_odr hidden noundef nonnull align 8 dereferenceable(8) ptr @_ZNSt6vectorIdSaIdEEixEm(ptr noundef nonnull align 8 dereferenceable(24) %0, i64 noundef %1) #6 comdat align 2 {
  %3 = alloca ptr, align 8
  %4 = alloca i64, align 8
  store ptr %0, ptr %3, align 8, !tbaa !113
  store i64 %1, ptr %4, align 8, !tbaa !115
  %5 = load ptr, ptr %3, align 8
  %6 = getelementptr inbounds nuw %"struct.std::_Vector_base.12", ptr %5, i32 0, i32 0
  %7 = getelementptr inbounds nuw %"struct.std::_Vector_base<double, std::allocator<double>>::_Vector_impl_data", ptr %6, i32 0, i32 0
  %8 = load ptr, ptr %7, align 8, !tbaa !117
  %9 = load i64, ptr %4, align 8, !tbaa !115
  %10 = getelementptr inbounds nuw double, ptr %8, i64 %9
  ret ptr %10
}

; Function Attrs: mustprogress uwtable
define hidden void @_ZN19OpenColorIO_v2_5dev21CameraLog2LinRenderer10updateDataERSt10shared_ptrIKNS_9LogOpDataEE(ptr noundef nonnull align 8 dereferenceable(200) %0, ptr noundef nonnull align 8 dereferenceable(16) %1) unnamed_addr #4 align 2 {
  %3 = alloca ptr, align 8
  %4 = alloca ptr, align 8
  store ptr %0, ptr %3, align 8, !tbaa !158
  store ptr %1, ptr %4, align 8, !tbaa !3
  %5 = load ptr, ptr %3, align 8
  %6 = load ptr, ptr %4, align 8, !tbaa !3
  call void @_ZN19OpenColorIO_v2_5dev21CameraL2LBaseRenderer10updateDataERSt10shared_ptrIKNS_9LogOpDataEE(ptr noundef nonnull align 8 dereferenceable(128) %5, ptr noundef nonnull align 8 dereferenceable(16) %6)
  %7 = getelementptr inbounds nuw %"class.OpenColorIO_v2_5dev::CameraL2LBaseRenderer", ptr %5, i32 0, i32 4
  %8 = load float, ptr %7, align 4, !tbaa !156
  %9 = getelementptr inbounds nuw %"class.OpenColorIO_v2_5dev::L2LBaseRenderer", ptr %5, i32 0, i32 2
  %10 = call noundef nonnull align 8 dereferenceable(8) ptr @_ZNSt6vectorIdSaIdEEixEm(ptr noundef nonnull align 8 dereferenceable(24) %9, i64 noundef 0) #3
  %11 = load double, ptr %10, align 8, !tbaa !143
  %12 = fptrunc double %11 to float
  %13 = fdiv float %8, %12
  %14 = getelementptr inbounds nuw %"class.OpenColorIO_v2_5dev::CameraLog2LinRenderer", ptr %5, i32 0, i32 1
  %15 = getelementptr inbounds [3 x float], ptr %14, i64 0, i64 0
  store float %13, ptr %15, align 8, !tbaa !14
  %16 = getelementptr inbounds nuw %"class.OpenColorIO_v2_5dev::CameraL2LBaseRenderer", ptr %5, i32 0, i32 4
  %17 = load float, ptr %16, align 4, !tbaa !156
  %18 = getelementptr inbounds nuw %"class.OpenColorIO_v2_5dev::L2LBaseRenderer", ptr %5, i32 0, i32 3
  %19 = call noundef nonnull align 8 dereferenceable(8) ptr @_ZNSt6vectorIdSaIdEEixEm(ptr noundef nonnull align 8 dereferenceable(24) %18, i64 noundef 0) #3
  %20 = load double, ptr %19, align 8, !tbaa !143
  %21 = fptrunc double %20 to float
  %22 = fdiv float %17, %21
  %23 = getelementptr inbounds nuw %"class.OpenColorIO_v2_5dev::CameraLog2LinRenderer", ptr %5, i32 0, i32 1
  %24 = getelementptr inbounds [3 x float], ptr %23, i64 0, i64 1
  store float %22, ptr %24, align 4, !tbaa !14
  %25 = getelementptr inbounds nuw %"class.OpenColorIO_v2_5dev::CameraL2LBaseRenderer", ptr %5, i32 0, i32 4
  %26 = load float, ptr %25, align 4, !tbaa !156
  %27 = getelementptr inbounds nuw %"class.OpenColorIO_v2_5dev::L2LBaseRenderer", ptr %5, i32 0, i32 4
  %28 = call noundef nonnull align 8 dereferenceable(8) ptr @_ZNSt6vectorIdSaIdEEixEm(ptr noundef nonnull align 8 dereferenceable(24) %27, i64 noundef 0) #3
  %29 = load double, ptr %28, align 8, !tbaa !143
  %30 = fptrunc double %29 to float
  %31 = fdiv float %26, %30
  %32 = getelementptr inbounds nuw %"class.OpenColorIO_v2_5dev::CameraLog2LinRenderer", ptr %5, i32 0, i32 1
  %33 = getelementptr inbounds [3 x float], ptr %32, i64 0, i64 2
  store float %31, ptr %33, align 8, !tbaa !14
  %34 = getelementptr inbounds nuw %"class.OpenColorIO_v2_5dev::L2LBaseRenderer", ptr %5, i32 0, i32 2
  %35 = call noundef nonnull align 8 dereferenceable(8) ptr @_ZNSt6vectorIdSaIdEEixEm(ptr noundef nonnull align 8 dereferenceable(24) %34, i64 noundef 1) #3
  %36 = load double, ptr %35, align 8, !tbaa !143
  %37 = fptrunc double %36 to float
  %38 = fneg float %37
  %39 = getelementptr inbounds nuw %"class.OpenColorIO_v2_5dev::CameraLog2LinRenderer", ptr %5, i32 0, i32 2
  %40 = getelementptr inbounds [3 x float], ptr %39, i64 0, i64 0
  store float %38, ptr %40, align 4, !tbaa !14
  %41 = getelementptr inbounds nuw %"class.OpenColorIO_v2_5dev::L2LBaseRenderer", ptr %5, i32 0, i32 3
  %42 = call noundef nonnull align 8 dereferenceable(8) ptr @_ZNSt6vectorIdSaIdEEixEm(ptr noundef nonnull align 8 dereferenceable(24) %41, i64 noundef 1) #3
  %43 = load double, ptr %42, align 8, !tbaa !143
  %44 = fptrunc double %43 to float
  %45 = fneg float %44
  %46 = getelementptr inbounds nuw %"class.OpenColorIO_v2_5dev::CameraLog2LinRenderer", ptr %5, i32 0, i32 2
  %47 = getelementptr inbounds [3 x float], ptr %46, i64 0, i64 1
  store float %45, ptr %47, align 4, !tbaa !14
  %48 = getelementptr inbounds nuw %"class.OpenColorIO_v2_5dev::L2LBaseRenderer", ptr %5, i32 0, i32 4
  %49 = call noundef nonnull align 8 dereferenceable(8) ptr @_ZNSt6vectorIdSaIdEEixEm(ptr noundef nonnull align 8 dereferenceable(24) %48, i64 noundef 1) #3
  %50 = load double, ptr %49, align 8, !tbaa !143
  %51 = fptrunc double %50 to float
  %52 = fneg float %51
  %53 = getelementptr inbounds nuw %"class.OpenColorIO_v2_5dev::CameraLog2LinRenderer", ptr %5, i32 0, i32 2
  %54 = getelementptr inbounds [3 x float], ptr %53, i64 0, i64 2
  store float %52, ptr %54, align 4, !tbaa !14
  %55 = getelementptr inbounds nuw %"class.OpenColorIO_v2_5dev::L2LBaseRenderer", ptr %5, i32 0, i32 2
  %56 = call noundef nonnull align 8 dereferenceable(8) ptr @_ZNSt6vectorIdSaIdEEixEm(ptr noundef nonnull align 8 dereferenceable(24) %55, i64 noundef 3) #3
  %57 = load double, ptr %56, align 8, !tbaa !143
  %58 = fptrunc double %57 to float
  %59 = fneg float %58
  %60 = getelementptr inbounds nuw %"class.OpenColorIO_v2_5dev::CameraLog2LinRenderer", ptr %5, i32 0, i32 3
  %61 = getelementptr inbounds [3 x float], ptr %60, i64 0, i64 0
  store float %59, ptr %61, align 8, !tbaa !14
  %62 = getelementptr inbounds nuw %"class.OpenColorIO_v2_5dev::L2LBaseRenderer", ptr %5, i32 0, i32 3
  %63 = call noundef nonnull align 8 dereferenceable(8) ptr @_ZNSt6vectorIdSaIdEEixEm(ptr noundef nonnull align 8 dereferenceable(24) %62, i64 noundef 3) #3
  %64 = load double, ptr %63, align 8, !tbaa !143
  %65 = fptrunc double %64 to float
  %66 = fneg float %65
  %67 = getelementptr inbounds nuw %"class.OpenColorIO_v2_5dev::CameraLog2LinRenderer", ptr %5, i32 0, i32 3
  %68 = getelementptr inbounds [3 x float], ptr %67, i64 0, i64 1
  store float %66, ptr %68, align 4, !tbaa !14
  %69 = getelementptr inbounds nuw %"class.OpenColorIO_v2_5dev::L2LBaseRenderer", ptr %5, i32 0, i32 4
  %70 = call noundef nonnull align 8 dereferenceable(8) ptr @_ZNSt6vectorIdSaIdEEixEm(ptr noundef nonnull align 8 dereferenceable(24) %69, i64 noundef 3) #3
  %71 = load double, ptr %70, align 8, !tbaa !143
  %72 = fptrunc double %71 to float
  %73 = fneg float %72
  %74 = getelementptr inbounds nuw %"class.OpenColorIO_v2_5dev::CameraLog2LinRenderer", ptr %5, i32 0, i32 3
  %75 = getelementptr inbounds [3 x float], ptr %74, i64 0, i64 2
  store float %73, ptr %75, align 8, !tbaa !14
  %76 = getelementptr inbounds nuw %"class.OpenColorIO_v2_5dev::L2LBaseRenderer", ptr %5, i32 0, i32 2
  %77 = call noundef nonnull align 8 dereferenceable(8) ptr @_ZNSt6vectorIdSaIdEEixEm(ptr noundef nonnull align 8 dereferenceable(24) %76, i64 noundef 2) #3
  %78 = load double, ptr %77, align 8, !tbaa !143
  %79 = fptrunc double %78 to float
  %80 = fdiv float 1.000000e+00, %79
  %81 = getelementptr inbounds nuw %"class.OpenColorIO_v2_5dev::CameraLog2LinRenderer", ptr %5, i32 0, i32 4
  %82 = getelementptr inbounds [3 x float], ptr %81, i64 0, i64 0
  store float %80, ptr %82, align 4, !tbaa !14
  %83 = getelementptr inbounds nuw %"class.OpenColorIO_v2_5dev::L2LBaseRenderer", ptr %5, i32 0, i32 3
  %84 = call noundef nonnull align 8 dereferenceable(8) ptr @_ZNSt6vectorIdSaIdEEixEm(ptr noundef nonnull align 8 dereferenceable(24) %83, i64 noundef 2) #3
  %85 = load double, ptr %84, align 8, !tbaa !143
  %86 = fptrunc double %85 to float
  %87 = fdiv float 1.000000e+00, %86
  %88 = getelementptr inbounds nuw %"class.OpenColorIO_v2_5dev::CameraLog2LinRenderer", ptr %5, i32 0, i32 4
  %89 = getelementptr inbounds [3 x float], ptr %88, i64 0, i64 1
  store float %87, ptr %89, align 4, !tbaa !14
  %90 = getelementptr inbounds nuw %"class.OpenColorIO_v2_5dev::L2LBaseRenderer", ptr %5, i32 0, i32 4
  %91 = call noundef nonnull align 8 dereferenceable(8) ptr @_ZNSt6vectorIdSaIdEEixEm(ptr noundef nonnull align 8 dereferenceable(24) %90, i64 noundef 2) #3
  %92 = load double, ptr %91, align 8, !tbaa !143
  %93 = fptrunc double %92 to float
  %94 = fdiv float 1.000000e+00, %93
  %95 = getelementptr inbounds nuw %"class.OpenColorIO_v2_5dev::CameraLog2LinRenderer", ptr %5, i32 0, i32 4
  %96 = getelementptr inbounds [3 x float], ptr %95, i64 0, i64 2
  store float %94, ptr %96, align 4, !tbaa !14
  %97 = getelementptr inbounds nuw %"class.OpenColorIO_v2_5dev::CameraL2LBaseRenderer", ptr %5, i32 0, i32 2
  %98 = getelementptr inbounds [3 x float], ptr %97, i64 0, i64 0
  %99 = load float, ptr %98, align 4, !tbaa !14
  %100 = fdiv float 1.000000e+00, %99
  %101 = getelementptr inbounds nuw %"class.OpenColorIO_v2_5dev::CameraLog2LinRenderer", ptr %5, i32 0, i32 5
  %102 = getelementptr inbounds [3 x float], ptr %101, i64 0, i64 0
  store float %100, ptr %102, align 8, !tbaa !14
  %103 = getelementptr inbounds nuw %"class.OpenColorIO_v2_5dev::CameraL2LBaseRenderer", ptr %5, i32 0, i32 2
  %104 = getelementptr inbounds [3 x float], ptr %103, i64 0, i64 1
  %105 = load float, ptr %104, align 4, !tbaa !14
  %106 = fdiv float 1.000000e+00, %105
  %107 = getelementptr inbounds nuw %"class.OpenColorIO_v2_5dev::CameraLog2LinRenderer", ptr %5, i32 0, i32 5
  %108 = getelementptr inbounds [3 x float], ptr %107, i64 0, i64 1
  store float %106, ptr %108, align 4, !tbaa !14
  %109 = getelementptr inbounds nuw %"class.OpenColorIO_v2_5dev::CameraL2LBaseRenderer", ptr %5, i32 0, i32 2
  %110 = getelementptr inbounds [3 x float], ptr %109, i64 0, i64 2
  %111 = load float, ptr %110, align 4, !tbaa !14
  %112 = fdiv float 1.000000e+00, %111
  %113 = getelementptr inbounds nuw %"class.OpenColorIO_v2_5dev::CameraLog2LinRenderer", ptr %5, i32 0, i32 5
  %114 = getelementptr inbounds [3 x float], ptr %113, i64 0, i64 2
  store float %112, ptr %114, align 8, !tbaa !14
  %115 = getelementptr inbounds nuw %"class.OpenColorIO_v2_5dev::CameraL2LBaseRenderer", ptr %5, i32 0, i32 3
  %116 = getelementptr inbounds [3 x float], ptr %115, i64 0, i64 0
  %117 = load float, ptr %116, align 8, !tbaa !14
  %118 = fneg float %117
  %119 = getelementptr inbounds nuw %"class.OpenColorIO_v2_5dev::CameraLog2LinRenderer", ptr %5, i32 0, i32 6
  %120 = getelementptr inbounds [3 x float], ptr %119, i64 0, i64 0
  store float %118, ptr %120, align 4, !tbaa !14
  %121 = getelementptr inbounds nuw %"class.OpenColorIO_v2_5dev::CameraL2LBaseRenderer", ptr %5, i32 0, i32 3
  %122 = getelementptr inbounds [3 x float], ptr %121, i64 0, i64 1
  %123 = load float, ptr %122, align 4, !tbaa !14
  %124 = fneg float %123
  %125 = getelementptr inbounds nuw %"class.OpenColorIO_v2_5dev::CameraLog2LinRenderer", ptr %5, i32 0, i32 6
  %126 = getelementptr inbounds [3 x float], ptr %125, i64 0, i64 1
  store float %124, ptr %126, align 4, !tbaa !14
  %127 = getelementptr inbounds nuw %"class.OpenColorIO_v2_5dev::CameraL2LBaseRenderer", ptr %5, i32 0, i32 3
  %128 = getelementptr inbounds [3 x float], ptr %127, i64 0, i64 2
  %129 = load float, ptr %128, align 8, !tbaa !14
  %130 = fneg float %129
  %131 = getelementptr inbounds nuw %"class.OpenColorIO_v2_5dev::CameraLog2LinRenderer", ptr %5, i32 0, i32 6
  %132 = getelementptr inbounds [3 x float], ptr %131, i64 0, i64 2
  store float %130, ptr %132, align 4, !tbaa !14
  ret void
}