; Function Attrs: mustprogress uwtable
define hidden void @_ZN19OpenColorIO_v2_5dev21CameraLog2LinRenderer10updateDataERSt10shared_ptrIKNS_9LogOpDataEE(ptr noundef nonnull align 8 dereferenceable(200) initializes((8, 12)) %0, ptr noundef nonnull readonly align 8 captures(none) dereferenceable(16) %1) unnamed_addr #3 align 2 {
  tail call void @_ZN19OpenColorIO_v2_5dev21CameraL2LBaseRenderer10updateDataERSt10shared_ptrIKNS_9LogOpDataEE(ptr noundef nonnull align 8 dereferenceable(128) %0, ptr noundef nonnull align 8 dereferenceable(16) %1)
  %3 = getelementptr inbounds nuw i8, ptr %0, i64 124
  %4 = load float, ptr %3, align 4, !tbaa !124
  %5 = getelementptr inbounds nuw i8, ptr %0, i64 16
  %6 = load ptr, ptr %5, align 8, !tbaa !108
  %7 = load double, ptr %6, align 8, !tbaa !119
  %8 = fptrunc double %7 to float
  %9 = fdiv float %4, %8
  %10 = getelementptr inbounds nuw i8, ptr %0, i64 128
  store float %9, ptr %10, align 8, !tbaa !111
  %11 = getelementptr inbounds nuw i8, ptr %0, i64 40
  %12 = load ptr, ptr %11, align 8, !tbaa !108
  %13 = load double, ptr %12, align 8, !tbaa !119
  %14 = fptrunc double %13 to float
  %15 = fdiv float %4, %14
  %16 = getelementptr inbounds nuw i8, ptr %0, i64 132
  store float %15, ptr %16, align 4, !tbaa !111
  %17 = getelementptr inbounds nuw i8, ptr %0, i64 64
  %18 = load ptr, ptr %17, align 8, !tbaa !108
  %19 = load double, ptr %18, align 8, !tbaa !119
  %20 = fptrunc double %19 to float
  %21 = fdiv float %4, %20
  %22 = getelementptr inbounds nuw i8, ptr %0, i64 136
  store float %21, ptr %22, align 8, !tbaa !111
  %23 = getelementptr inbounds nuw i8, ptr %6, i64 8
  %24 = load double, ptr %23, align 8, !tbaa !119
  %25 = fptrunc double %24 to float
  %26 = fneg float %25
  %27 = getelementptr inbounds nuw i8, ptr %0, i64 140
  store float %26, ptr %27, align 4, !tbaa !111
  %28 = getelementptr inbounds nuw i8, ptr %12, i64 8
  %29 = load double, ptr %28, align 8, !tbaa !119
  %30 = fptrunc double %29 to float
  %31 = fneg float %30
  %32 = getelementptr inbounds nuw i8, ptr %0, i64 144
  store float %31, ptr %32, align 8, !tbaa !111
  %33 = getelementptr inbounds nuw i8, ptr %18, i64 8
  %34 = load double, ptr %33, align 8, !tbaa !119
  %35 = fptrunc double %34 to float
  %36 = fneg float %35
  %37 = getelementptr inbounds nuw i8, ptr %0, i64 148
  store float %36, ptr %37, align 4, !tbaa !111
  %38 = getelementptr inbounds nuw i8, ptr %6, i64 24
  %39 = load double, ptr %38, align 8, !tbaa !119
  %40 = fptrunc double %39 to float
  %41 = fneg float %40
  %42 = getelementptr inbounds nuw i8, ptr %0, i64 152
  store float %41, ptr %42, align 8, !tbaa !111
  %43 = getelementptr inbounds nuw i8, ptr %12, i64 24
  %44 = load double, ptr %43, align 8, !tbaa !119
  %45 = fptrunc double %44 to float
  %46 = fneg float %45
  %47 = getelementptr inbounds nuw i8, ptr %0, i64 156
  store float %46, ptr %47, align 4, !tbaa !111
  %48 = getelementptr inbounds nuw i8, ptr %18, i64 24
  %49 = load double, ptr %48, align 8, !tbaa !119
  %50 = fptrunc double %49 to float
  %51 = fneg float %50
  %52 = getelementptr inbounds nuw i8, ptr %0, i64 160
  store float %51, ptr %52, align 8, !tbaa !111
  %53 = getelementptr inbounds nuw i8, ptr %6, i64 16
  %54 = load double, ptr %53, align 8, !tbaa !119
  %55 = fptrunc double %54 to float
  %56 = fdiv float 1.000000e+00, %55
  %57 = getelementptr inbounds nuw i8, ptr %0, i64 164
  store float %56, ptr %57, align 4, !tbaa !111
  %58 = getelementptr inbounds nuw i8, ptr %12, i64 16
  %59 = load double, ptr %58, align 8, !tbaa !119
  %60 = fptrunc double %59 to float
  %61 = fdiv float 1.000000e+00, %60
  %62 = getelementptr inbounds nuw i8, ptr %0, i64 168
  store float %61, ptr %62, align 8, !tbaa !111
  %63 = getelementptr inbounds nuw i8, ptr %18, i64 16
  %64 = load double, ptr %63, align 8, !tbaa !119
  %65 = fptrunc double %64 to float
  %66 = fdiv float 1.000000e+00, %65
  %67 = getelementptr inbounds nuw i8, ptr %0, i64 172
  store float %66, ptr %67, align 4, !tbaa !111
  %68 = getelementptr inbounds nuw i8, ptr %0, i64 100
  %69 = load float, ptr %68, align 4, !tbaa !111
  %70 = fdiv float 1.000000e+00, %69
  %71 = getelementptr inbounds nuw i8, ptr %0, i64 176
  store float %70, ptr %71, align 8, !tbaa !111
  %72 = getelementptr inbounds nuw i8, ptr %0, i64 104
  %73 = load float, ptr %72, align 8, !tbaa !111
  %74 = fdiv float 1.000000e+00, %73
  %75 = getelementptr inbounds nuw i8, ptr %0, i64 180
  store float %74, ptr %75, align 4, !tbaa !111
  %76 = getelementptr inbounds nuw i8, ptr %0, i64 108
  %77 = load float, ptr %76, align 4, !tbaa !111
  %78 = fdiv float 1.000000e+00, %77
  %79 = getelementptr inbounds nuw i8, ptr %0, i64 184
  store float %78, ptr %79, align 8, !tbaa !111
  %80 = getelementptr inbounds nuw i8, ptr %0, i64 112
  %81 = load float, ptr %80, align 8, !tbaa !111
  %82 = fneg float %81
  %83 = getelementptr inbounds nuw i8, ptr %0, i64 188
  store float %82, ptr %83, align 4, !tbaa !111
  %84 = getelementptr inbounds nuw i8, ptr %0, i64 116
  %85 = load float, ptr %84, align 4, !tbaa !111
  %86 = fneg float %85
  %87 = getelementptr inbounds nuw i8, ptr %0, i64 192
  store float %86, ptr %87, align 8, !tbaa !111
  %88 = getelementptr inbounds nuw i8, ptr %0, i64 120
  %89 = load float, ptr %88, align 8, !tbaa !111
  %90 = fneg float %89
  %91 = getelementptr inbounds nuw i8, ptr %0, i64 196
  store float %90, ptr %91, align 4, !tbaa !111
  ret void
}